target datalayout = "e-m:e-p270:32:32-p271:32:32-p272:64:64-i64:64-i128:128-f80:128-n8:16:32:64-S128"
target triple = "x86_64-pc-linux-gnu"

%struct.AVFilterContext = type { ptr, ptr, ptr, ptr, ptr, i32, ptr, ptr, i32, ptr, ptr, i32, i32, ptr, ptr, ptr, ptr, i32, ptr, i32, i32 }
%struct.LoudNormContext = type { ptr, double, double, double, double, double, double, double, double, i32, i32, i32, ptr, i32, i32, i32, [30 x double], [21 x double], double, i32, [2 x double], ptr, ptr, i32, i32, i32, i32, i32, i32, i32, i32, [30 x i64], i32, i32, i32, i32, ptr, ptr }

@.str.26 = private unnamed_addr constant [7 x i8] c"linear\00", align 1
@.str.37 = private unnamed_addr constant [8 x i8] c"dynamic\00", align 1
@.str.39 = private unnamed_addr constant [7 x i8] c"Linear\00", align 1
@.str.40 = private unnamed_addr constant [8 x i8] c"Dynamic\00", align 1

; Function Attrs: cold nounwind optsize uwtable
define internal void @uninit(ptr noundef %0) #0 {
  %2 = alloca ptr, align 8
  %3 = alloca ptr, align 8
  %4 = alloca double, align 8
  %5 = alloca double, align 8
  %6 = alloca double, align 8
  %7 = alloca double, align 8
  %8 = alloca double, align 8
  %9 = alloca double, align 8
  %10 = alloca double, align 8
  %11 = alloca double, align 8
  %12 = alloca i32, align 4
  %13 = alloca double, align 8
  %14 = alloca double, align 8
  store ptr %0, ptr %2, align 8, !tbaa !4
  call void @llvm.lifetime.start.p0(i64 8, ptr %3) #7
  %15 = load ptr, ptr %2, align 8, !tbaa !4
  %16 = getelementptr inbounds nuw %struct.AVFilterContext, ptr %15, i32 0, i32 9
  %17 = load ptr, ptr %16, align 8, !tbaa !9
  store ptr %17, ptr %3, align 8, !tbaa !22
  call void @llvm.lifetime.start.p0(i64 8, ptr %4) #7
  call void @llvm.lifetime.start.p0(i64 8, ptr %5) #7
  call void @llvm.lifetime.start.p0(i64 8, ptr %6) #7
  call void @llvm.lifetime.start.p0(i64 8, ptr %7) #7
  call void @llvm.lifetime.start.p0(i64 8, ptr %8) #7
  call void @llvm.lifetime.start.p0(i64 8, ptr %9) #7
  call void @llvm.lifetime.start.p0(i64 8, ptr %10) #7
  call void @llvm.lifetime.start.p0(i64 8, ptr %11) #7
  call void @llvm.lifetime.start.p0(i64 4, ptr %12) #7
  %18 = load ptr, ptr %3, align 8, !tbaa !22
  %19 = getelementptr inbounds nuw %struct.LoudNormContext, ptr %18, i32 0, i32 36
  %20 = load ptr, ptr %19, align 8, !tbaa !38
  %21 = icmp ne ptr %20, null
  br i1 %21, label %22, label %27

22:                                               ; preds = %1
  %23 = load ptr, ptr %3, align 8, !tbaa !22
  %24 = getelementptr inbounds nuw %struct.LoudNormContext, ptr %23, i32 0, i32 37
  %25 = load ptr, ptr %24, align 8, !tbaa !39
  %26 = icmp ne ptr %25, null
  br i1 %26, label %28, label %27

27:                                               ; preds = %22, %1
  br label %155

28:                                               ; preds = %22
  %29 = load ptr, ptr %3, align 8, !tbaa !22
  %30 = getelementptr inbounds nuw %struct.LoudNormContext, ptr %29, i32 0, i32 36
  %31 = load ptr, ptr %30, align 8, !tbaa !38
  %32 = call i32 @ff_ebur128_loudness_range(ptr noundef %31, ptr noundef %6)
  %33 = load ptr, ptr %3, align 8, !tbaa !22
  %34 = getelementptr inbounds nuw %struct.LoudNormContext, ptr %33, i32 0, i32 36
  %35 = load ptr, ptr %34, align 8, !tbaa !38
  %36 = call i32 @ff_ebur128_loudness_global(ptr noundef %35, ptr noundef %4)
  %37 = load ptr, ptr %3, align 8, !tbaa !22
  %38 = getelementptr inbounds nuw %struct.LoudNormContext, ptr %37, i32 0, i32 36
  %39 = load ptr, ptr %38, align 8, !tbaa !38
  %40 = call i32 @ff_ebur128_relative_threshold(ptr noundef %39, ptr noundef %8)
  store i32 0, ptr %12, align 4, !tbaa !40
  br label %41

41:                                               ; preds = %62, %28
  %42 = load i32, ptr %12, align 4, !tbaa !40
  %43 = load ptr, ptr %3, align 8, !tbaa !22
  %44 = getelementptr inbounds nuw %struct.LoudNormContext, ptr %43, i32 0, i32 35
  %45 = load i32, ptr %44, align 4, !tbaa !41
  %46 = icmp slt i32 %42, %45
  br i1 %46, label %47, label %65

47:                                               ; preds = %41
  call void @llvm.lifetime.start.p0(i64 8, ptr %13) #7
  %48 = load ptr, ptr %3, align 8, !tbaa !22
  %49 = getelementptr inbounds nuw %struct.LoudNormContext, ptr %48, i32 0, i32 36
  %50 = load ptr, ptr %49, align 8, !tbaa !38
  %51 = load i32, ptr %12, align 4, !tbaa !40
  %52 = call i32 @ff_ebur128_sample_peak(ptr noundef %50, i32 noundef %51, ptr noundef %13)
  %53 = load i32, ptr %12, align 4, !tbaa !40
  %54 = icmp eq i32 %53, 0
  br i1 %54, label %59, label %55

55:                                               ; preds = %47
  %56 = load double, ptr %13, align 8, !tbaa !31
  %57 = load double, ptr %10, align 8, !tbaa !31
  %58 = fcmp nsz ogt double %56, %57
  br i1 %58, label %59, label %61

59:                                               ; preds = %55, %47
  %60 = load double, ptr %13, align 8, !tbaa !31
  store double %60, ptr %10, align 8, !tbaa !31
  br label %61

61:                                               ; preds = %59, %55
  call void @llvm.lifetime.end.p0(i64 8, ptr %13) #7
  br label %62

62:                                               ; preds = %61
  %63 = load i32, ptr %12, align 4, !tbaa !40
  %64 = add nsw i32 %63, 1
  store i32 %64, ptr %12, align 4, !tbaa !40
  br label %41, !llvm.loop !42

65:                                               ; preds = %41
  %66 = load ptr, ptr %3, align 8, !tbaa !22
  %67 = getelementptr inbounds nuw %struct.LoudNormContext, ptr %66, i32 0, i32 37
  %68 = load ptr, ptr %67, align 8, !tbaa !39
  %69 = call i32 @ff_ebur128_loudness_range(ptr noundef %68, ptr noundef %7)
  %70 = load ptr, ptr %3, align 8, !tbaa !22
  %71 = getelementptr inbounds nuw %struct.LoudNormContext, ptr %70, i32 0, i32 37
  %72 = load ptr, ptr %71, align 8, !tbaa !39
  %73 = call i32 @ff_ebur128_loudness_global(ptr noundef %72, ptr noundef %5)
  %74 = load ptr, ptr %3, align 8, !tbaa !22
  %75 = getelementptr inbounds nuw %struct.LoudNormContext, ptr %74, i32 0, i32 37
  %76 = load ptr, ptr %75, align 8, !tbaa !39
  %77 = call i32 @ff_ebur128_relative_threshold(ptr noundef %76, ptr noundef %9)
  store i32 0, ptr %12, align 4, !tbaa !40
  br label %78

78:                                               ; preds = %99, %65
  %79 = load i32, ptr %12, align 4, !tbaa !40
  %80 = load ptr, ptr %3, align 8, !tbaa !22
  %81 = getelementptr inbounds nuw %struct.LoudNormContext, ptr %80, i32 0, i32 35
  %82 = load i32, ptr %81, align 4, !tbaa !41
  %83 = icmp slt i32 %79, %82
  br i1 %83, label %84, label %102

84:                                               ; preds = %78
  call void @llvm.lifetime.start.p0(i64 8, ptr %14) #7
  %85 = load ptr, ptr %3, align 8, !tbaa !22
  %86 = getelementptr inbounds nuw %struct.LoudNormContext, ptr %85, i32 0, i32 37
  %87 = load ptr, ptr %86, align 8, !tbaa !39
  %88 = load i32, ptr %12, align 4, !tbaa !40
  %89 = call i32 @ff_ebur128_sample_peak(ptr noundef %87, i32 noundef %88, ptr noundef %14)
  %90 = load i32, ptr %12, align 4, !tbaa !40
  %91 = icmp eq i32 %90, 0
  br i1 %91, label %96, label %92

92:                                               ; preds = %84
  %93 = load double, ptr %14, align 8, !tbaa !31
  %94 = load double, ptr %11, align 8, !tbaa !31
  %95 = fcmp nsz ogt double %93, %94
  br i1 %95, label %96, label %98

96:                                               ; preds = %92, %84
  %97 = load double, ptr %14, align 8, !tbaa !31
  store double %97, ptr %11, align 8, !tbaa !31
  br label %98

98:                                               ; preds = %96, %92
  call void @llvm.lifetime.end.p0(i64 8, ptr %14) #7
  br label %99

99:                                               ; preds = %98
  %100 = load i32, ptr %12, align 4, !tbaa !40
  %101 = add nsw i32 %100, 1
  store i32 %101, ptr %12, align 4, !tbaa !40
  br label %78, !llvm.loop !44

102:                                              ; preds = %78
  %103 = load ptr, ptr %3, align 8, !tbaa !22
  %104 = getelementptr inbounds nuw %struct.LoudNormContext, ptr %103, i32 0, i32 11
  %105 = load i32, ptr %104, align 8, !tbaa !45
  switch i32 %105, label %154 [
    i32 0, label %154
    i32 1, label %106
    i32 2, label %130
  ]

106:                                              ; preds = %102
  %107 = load ptr, ptr %2, align 8, !tbaa !4
  %108 = load double, ptr %4, align 8, !tbaa !31
  %109 = load double, ptr %10, align 8, !tbaa !31
  %110 = call nsz double @llvm.log10.f64(double %109)
  %111 = fmul nsz double 2.000000e+01, %110
  %112 = load double, ptr %6, align 8, !tbaa !31
  %113 = load double, ptr %8, align 8, !tbaa !31
  %114 = load double, ptr %5, align 8, !tbaa !31
  %115 = load double, ptr %11, align 8, !tbaa !31
  %116 = call nsz double @llvm.log10.f64(double %115)
  %117 = fmul nsz double 2.000000e+01, %116
  %118 = load double, ptr %7, align 8, !tbaa !31
  %119 = load double, ptr %9, align 8, !tbaa !31
  %120 = load ptr, ptr %3, align 8, !tbaa !22
  %121 = getelementptr inbounds nuw %struct.LoudNormContext, ptr %120, i32 0, i32 32
  %122 = load i32, ptr %121, align 8, !tbaa !24
  %123 = icmp eq i32 %122, 3
  %124 = select i1 %123, ptr @.str.26, ptr @.str.37
  %125 = load ptr, ptr %3, align 8, !tbaa !22
  %126 = getelementptr inbounds nuw %struct.LoudNormContext, ptr %125, i32 0, i32 1
  %127 = load double, ptr %126, align 8, !tbaa !29
  %128 = load double, ptr %5, align 8, !tbaa !31
  %129 = fsub nsz double %127, %128
  call void (ptr, i32, ptr, ...) @av_log(ptr noundef %107, i32 noundef 32, ptr noundef @.str.36, double noundef %108, double noundef %111, double noundef %112, double noundef %113, double noundef %114, double noundef %117, double noundef %118, double noundef %119, ptr noundef %124, double noundef %129)
  br label %154

130:                                              ; preds = %102
  %131 = load ptr, ptr %2, align 8, !tbaa !4
  %132 = load double, ptr %4, align 8, !tbaa !31
  %133 = load double, ptr %10, align 8, !tbaa !31
  %134 = call nsz double @llvm.log10.f64(double %133)
  %135 = fmul nsz double 2.000000e+01, %134
  %136 = load double, ptr %6, align 8, !tbaa !31
  %137 = load double, ptr %8, align 8, !tbaa !31
  %138 = load double, ptr %5, align 8, !tbaa !31
  %139 = load double, ptr %11, align 8, !tbaa !31
  %140 = call nsz double @llvm.log10.f64(double %139)
  %141 = fmul nsz double 2.000000e+01, %140
  %142 = load double, ptr %7, align 8, !tbaa !31
  %143 = load double, ptr %9, align 8, !tbaa !31
  %144 = load ptr, ptr %3, align 8, !tbaa !22
  %145 = getelementptr inbounds nuw %struct.LoudNormContext, ptr %144, i32 0, i32 32
  %146 = load i32, ptr %145, align 8, !tbaa !24
  %147 = icmp eq i32 %146, 3
  %148 = select i1 %147, ptr @.str.39, ptr @.str.40
  %149 = load ptr, ptr %3, align 8, !tbaa !22
  %150 = getelementptr inbounds nuw %struct.LoudNormContext, ptr %149, i32 0, i32 1
  %151 = load double, ptr %150, align 8, !tbaa !29
  %152 = load double, ptr %5, align 8, !tbaa !31
  %153 = fsub nsz double %151, %152
  call void (ptr, i32, ptr, ...) @av_log(ptr noundef %131, i32 noundef 32, ptr noundef @.str.38, double noundef %132, double noundef %135, double noundef %136, double noundef %137, double noundef %138, double noundef %141, double noundef %142, double noundef %143, ptr noundef %148, double noundef %153)
  br label %154

154:                                              ; preds = %102, %130, %106, %102
  br label %155

155:                                              ; preds = %154, %27
  %156 = load ptr, ptr %3, align 8, !tbaa !22
  %157 = getelementptr inbounds nuw %struct.LoudNormContext, ptr %156, i32 0, i32 36
  %158 = load ptr, ptr %157, align 8, !tbaa !38
  %159 = icmp ne ptr %158, null
  br i1 %159, label %160, label %163

160:                                              ; preds = %155
  %161 = load ptr, ptr %3, align 8, !tbaa !22
  %162 = getelementptr inbounds nuw %struct.LoudNormContext, ptr %161, i32 0, i32 36
  call void @ff_ebur128_destroy(ptr noundef %162)
  br label %163

163:                                              ; preds = %160, %155
  %164 = load ptr, ptr %3, align 8, !tbaa !22
  %165 = getelementptr inbounds nuw %struct.LoudNormContext, ptr %164, i32 0, i32 37
  %166 = load ptr, ptr %165, align 8, !tbaa !39
  %167 = icmp ne ptr %166, null
  br i1 %167, label %168, label %171

168:                                              ; preds = %163
  %169 = load ptr, ptr %3, align 8, !tbaa !22
  %170 = getelementptr inbounds nuw %struct.LoudNormContext, ptr %169, i32 0, i32 37
  call void @ff_ebur128_destroy(ptr noundef %170)
  br label %171

171:                                              ; preds = %168, %163
  %172 = load ptr, ptr %3, align 8, !tbaa !22
  %173 = getelementptr inbounds nuw %struct.LoudNormContext, ptr %172, i32 0, i32 21
  call void @av_freep(ptr noundef %173)
  %174 = load ptr, ptr %3, align 8, !tbaa !22
  %175 = getelementptr inbounds nuw %struct.LoudNormContext, ptr %174, i32 0, i32 22
  call void @av_freep(ptr noundef %175)
  %176 = load ptr, ptr %3, align 8, !tbaa !22
  %177 = getelementptr inbounds nuw %struct.LoudNormContext, ptr %176, i32 0, i32 12
  call void @av_freep(ptr noundef %177)
  call void @llvm.lifetime.end.p0(i64 4, ptr %12) #7
  call void @llvm.lifetime.end.p0(i64 8, ptr %11) #7
  call void @llvm.lifetime.end.p0(i64 8, ptr %10) #7
  call void @llvm.lifetime.end.p0(i64 8, ptr %9) #7
  call void @llvm.lifetime.end.p0(i64 8, ptr %8) #7
  call void @llvm.lifetime.end.p0(i64 8, ptr %7) #7
  call void @llvm.lifetime.end.p0(i64 8, ptr %6) #7
  call void @llvm.lifetime.end.p0(i64 8, ptr %5) #7
  call void @llvm.lifetime.end.p0(i64 8, ptr %4) #7
  call void @llvm.lifetime.end.p0(i64 8, ptr %3) #7
  ret void
}