; Function Attrs: cold nounwind optsize uwtable
define internal void @uninit(ptr noundef %0) #1 {
  %2 = alloca double, align 8
  %3 = alloca double, align 8
  %4 = alloca double, align 8
  %5 = alloca double, align 8
  %6 = alloca double, align 8
  %7 = alloca double, align 8
  %8 = alloca double, align 8
  %9 = alloca double, align 8
  %10 = getelementptr inbounds nuw i8, ptr %0, i64 72
  %11 = load ptr, ptr %10, align 8, !tbaa !4
  call void @llvm.lifetime.start.p0(i64 8, ptr nonnull %2) #10
  call void @llvm.lifetime.start.p0(i64 8, ptr nonnull %3) #10
  call void @llvm.lifetime.start.p0(i64 8, ptr nonnull %4) #10
  call void @llvm.lifetime.start.p0(i64 8, ptr nonnull %5) #10
  call void @llvm.lifetime.start.p0(i64 8, ptr nonnull %6) #10
  call void @llvm.lifetime.start.p0(i64 8, ptr nonnull %7) #10
  %12 = getelementptr inbounds nuw i8, ptr %11, i64 856
  %13 = load ptr, ptr %12, align 8, !tbaa !33
  %.not = icmp eq ptr %13, null
  br i1 %.not, label %.thread, label %14

14:                                               ; preds = %1
  %15 = getelementptr inbounds nuw i8, ptr %11, i64 864
  %16 = load ptr, ptr %15, align 8, !tbaa !34
  %.not45 = icmp eq ptr %16, null
  br i1 %.not45, label %88, label %17

17:                                               ; preds = %14
  %18 = call i32 @ff_ebur128_loudness_range(ptr noundef nonnull %13, ptr noundef nonnull %4) #10
  %19 = load ptr, ptr %12, align 8, !tbaa !33
  %20 = call i32 @ff_ebur128_loudness_global(ptr noundef %19, ptr noundef nonnull %2) #10
  %21 = load ptr, ptr %12, align 8, !tbaa !33
  %22 = call i32 @ff_ebur128_relative_threshold(ptr noundef %21, ptr noundef nonnull %6) #10
  %23 = getelementptr inbounds nuw i8, ptr %11, i64 852
  %24 = load i32, ptr %23, align 4, !tbaa !35
  %25 = icmp sgt i32 %24, 0
  br i1 %25, label %.lr.ph, label %._crit_edge

.lr.ph:                                           ; preds = %17, %.lr.ph
  %.053 = phi i32 [ %31, %.lr.ph ], [ 0, %17 ]
  %.04252 = phi double [ %.143, %.lr.ph ], [ undef, %17 ]
  call void @llvm.lifetime.start.p0(i64 8, ptr nonnull %8) #10
  %26 = load ptr, ptr %12, align 8, !tbaa !33
  %27 = call i32 @ff_ebur128_sample_peak(ptr noundef %26, i32 noundef %.053, ptr noundef nonnull %8) #10
  %28 = icmp eq i32 %.053, 0
  %29 = load double, ptr %8, align 8
  %30 = fcmp nsz ogt double %29, %.04252
  %or.cond = select i1 %28, i1 true, i1 %30
  %.143 = select nsz i1 %or.cond, double %29, double %.04252
  call void @llvm.lifetime.end.p0(i64 8, ptr nonnull %8) #10
  %31 = add nuw nsw i32 %.053, 1
  %32 = load i32, ptr %23, align 4, !tbaa !35
  %33 = icmp slt i32 %31, %32
  br i1 %33, label %.lr.ph, label %._crit_edge, !llvm.loop !36

._crit_edge:                                      ; preds = %.lr.ph, %17
  %.042.lcssa = phi double [ undef, %17 ], [ %.143, %.lr.ph ]
  %34 = load ptr, ptr %15, align 8, !tbaa !34
  %35 = call i32 @ff_ebur128_loudness_range(ptr noundef %34, ptr noundef nonnull %5) #10
  %36 = load ptr, ptr %15, align 8, !tbaa !34
  %37 = call i32 @ff_ebur128_loudness_global(ptr noundef %36, ptr noundef nonnull %3) #10
  %38 = load ptr, ptr %15, align 8, !tbaa !34
  %39 = call i32 @ff_ebur128_relative_threshold(ptr noundef %38, ptr noundef nonnull %7) #10
  %40 = load i32, ptr %23, align 4, !tbaa !35
  %41 = icmp sgt i32 %40, 0
  br i1 %41, label %.lr.ph57, label %._crit_edge58

.lr.ph57:                                         ; preds = %._crit_edge, %.lr.ph57
  %.155 = phi i32 [ %47, %.lr.ph57 ], [ 0, %._crit_edge ]
  %.04054 = phi double [ %.141, %.lr.ph57 ], [ undef, %._crit_edge ]
  call void @llvm.lifetime.start.p0(i64 8, ptr nonnull %9) #10
  %42 = load ptr, ptr %15, align 8, !tbaa !34
  %43 = call i32 @ff_ebur128_sample_peak(ptr noundef %42, i32 noundef %.155, ptr noundef nonnull %9) #10
  %44 = icmp eq i32 %.155, 0
  %45 = load double, ptr %9, align 8
  %46 = fcmp nsz ogt double %45, %.04054
  %or.cond50 = select i1 %44, i1 true, i1 %46
  %.141 = select nsz i1 %or.cond50, double %45, double %.04054
  call void @llvm.lifetime.end.p0(i64 8, ptr nonnull %9) #10
  %47 = add nuw nsw i32 %.155, 1
  %48 = load i32, ptr %23, align 4, !tbaa !35
  %49 = icmp slt i32 %47, %48
  br i1 %49, label %.lr.ph57, label %._crit_edge58, !llvm.loop !38

._crit_edge58:                                    ; preds = %.lr.ph57, %._crit_edge
  %.040.lcssa = phi double [ undef, %._crit_edge ], [ %.141, %.lr.ph57 ]
  %50 = getelementptr inbounds nuw i8, ptr %11, i64 80
  %51 = load i32, ptr %50, align 8, !tbaa !39
  switch i32 %51, label %88 [
    i32 2, label %70
    i32 1, label %52
  ]

52:                                               ; preds = %._crit_edge58
  %53 = load double, ptr %2, align 8, !tbaa !40
  %54 = call nsz double @llvm.log10.f64(double %.042.lcssa)
  %55 = fmul nsz double %54, 2.000000e+01
  %56 = load double, ptr %4, align 8, !tbaa !40
  %57 = load double, ptr %6, align 8, !tbaa !40
  %58 = load double, ptr %3, align 8, !tbaa !40
  %59 = call nsz double @llvm.log10.f64(double %.040.lcssa)
  %60 = fmul nsz double %59, 2.000000e+01
  %61 = load double, ptr %5, align 8, !tbaa !40
  %62 = load double, ptr %7, align 8, !tbaa !40
  %63 = getelementptr inbounds nuw i8, ptr %11, i64 840
  %64 = load i32, ptr %63, align 8, !tbaa !20
  %65 = icmp eq i32 %64, 3
  %66 = select i1 %65, ptr @.str.26, ptr @.str.37
  %67 = getelementptr inbounds nuw i8, ptr %11, i64 8
  %68 = load double, ptr %67, align 8, !tbaa !25
  %69 = fsub nsz double %68, %58
  call void (ptr, i32, ptr, ...) @av_log(ptr noundef nonnull %0, i32 noundef 32, ptr noundef nonnull @.str.36, double noundef %53, double noundef %55, double noundef %56, double noundef %57, double noundef %58, double noundef %60, double noundef %61, double noundef %62, ptr noundef nonnull %66, double noundef %69) #10
  br label %88

70:                                               ; preds = %._crit_edge58
  %71 = load double, ptr %2, align 8, !tbaa !40
  %72 = call nsz double @llvm.log10.f64(double %.042.lcssa)
  %73 = fmul nsz double %72, 2.000000e+01
  %74 = load double, ptr %4, align 8, !tbaa !40
  %75 = load double, ptr %6, align 8, !tbaa !40
  %76 = load double, ptr %3, align 8, !tbaa !40
  %77 = call nsz double @llvm.log10.f64(double %.040.lcssa)
  %78 = fmul nsz double %77, 2.000000e+01
  %79 = load double, ptr %5, align 8, !tbaa !40
  %80 = load double, ptr %7, align 8, !tbaa !40
  %81 = getelementptr inbounds nuw i8, ptr %11, i64 840
  %82 = load i32, ptr %81, align 8, !tbaa !20
  %83 = icmp eq i32 %82, 3
  %84 = select i1 %83, ptr @.str.39, ptr @.str.40
  %85 = getelementptr inbounds nuw i8, ptr %11, i64 8
  %86 = load double, ptr %85, align 8, !tbaa !25
  %87 = fsub nsz double %86, %76
  call void (ptr, i32, ptr, ...) @av_log(ptr noundef nonnull %0, i32 noundef 32, ptr noundef nonnull @.str.38, double noundef %71, double noundef %73, double noundef %74, double noundef %75, double noundef %76, double noundef %78, double noundef %79, double noundef %80, ptr noundef nonnull %84, double noundef %87) #10
  br label %88

88:                                               ; preds = %._crit_edge58, %52, %70, %14
  %.pr = load ptr, ptr %12, align 8, !tbaa !33
  %.not46 = icmp eq ptr %.pr, null
  br i1 %.not46, label %.thread, label %89

89:                                               ; preds = %88
  call void @ff_ebur128_destroy(ptr noundef nonnull %12) #10
  br label %.thread

.thread:                                          ; preds = %1, %89, %88
  %90 = getelementptr inbounds nuw i8, ptr %11, i64 864
  %91 = load ptr, ptr %90, align 8, !tbaa !34
  %.not47 = icmp eq ptr %91, null
  br i1 %.not47, label %93, label %92

92:                                               ; preds = %.thread
  call void @ff_ebur128_destroy(ptr noundef nonnull %90) #10
  br label %93

93:                                               ; preds = %92, %.thread
  %94 = getelementptr inbounds nuw i8, ptr %11, i64 552
  call void @av_freep(ptr noundef nonnull %94) #10
  %95 = getelementptr inbounds nuw i8, ptr %11, i64 560
  call void @av_freep(ptr noundef nonnull %95) #10
  %96 = getelementptr inbounds nuw i8, ptr %11, i64 88
  call void @av_freep(ptr noundef nonnull %96) #10
  call void @llvm.lifetime.end.p0(i64 8, ptr nonnull %7) #10
  call void @llvm.lifetime.end.p0(i64 8, ptr nonnull %6) #10
  call void @llvm.lifetime.end.p0(i64 8, ptr nonnull %5) #10
  call void @llvm.lifetime.end.p0(i64 8, ptr nonnull %4) #10
  call void @llvm.lifetime.end.p0(i64 8, ptr nonnull %3) #10
  call void @llvm.lifetime.end.p0(i64 8, ptr nonnull %2) #10
  ret void
}